target datalayout = "e-m:e-p270:32:32-p271:32:32-p272:64:64-i64:64-i128:128-f80:128-n8:16:32:64-S128"
target triple = "x86_64-pc-linux-gnu"

%struct.ImVec2 = type { float, float }
%struct.ImGuiInputTextState = type <{ ptr, ptr, i32, i32, %struct.ImVector.34, %struct.ImVector.34, %struct.ImVector.34, i32, %struct.ImVec2, float, i8, i8, i8, i8, i32, i8, [3 x i8], i32, i32, [4 x i8] }>
%struct.ImVector.34 = type { i32, i32, ptr }

; Function Attrs: mustprogress nounwind uwtable
define internal noundef zeroext i1 @_ZN5ImStbL18ImCharIsSeparatorWEj(i32 noundef %0) #4 {
  %2 = alloca i1, align 1
  %3 = alloca i32, align 4
  %4 = alloca ptr, align 8
  %5 = alloca ptr, align 8
  %6 = alloca ptr, align 8
  %7 = alloca i32, align 4
  %8 = alloca i32, align 4
  store i32 %0, ptr %3, align 4, !tbaa !9
  call void @llvm.lifetime.start.p0(i64 8, ptr %4) #17
  store ptr @_ZZN5ImStbL18ImCharIsSeparatorWEjE14separator_list, ptr %4, align 8, !tbaa !258
  call void @llvm.lifetime.start.p0(i64 8, ptr %5) #17
  store ptr @_ZZN5ImStbL18ImCharIsSeparatorWEjE14separator_list, ptr %5, align 8, !tbaa !258
  call void @llvm.lifetime.start.p0(i64 8, ptr %6) #17
  store ptr getelementptr inbounds (i32, ptr @_ZZN5ImStbL18ImCharIsSeparatorWEjE14separator_list, i64 29), ptr %6, align 8, !tbaa !258
  br label %9

9:                                                ; preds = %25, %1
  %10 = load ptr, ptr %5, align 8, !tbaa !258
  %11 = load ptr, ptr %6, align 8, !tbaa !258
  %12 = icmp ne ptr %10, %11
  br i1 %12, label %14, label %13

13:                                               ; preds = %9
  store i32 2, ptr %7, align 4
  br label %28

14:                                               ; preds = %9
  call void @llvm.lifetime.start.p0(i64 4, ptr %8) #17
  %15 = load ptr, ptr %5, align 8, !tbaa !258
  %16 = load i32, ptr %15, align 4, !tbaa !9
  store i32 %16, ptr %8, align 4, !tbaa !9
  %17 = load i32, ptr %3, align 4, !tbaa !9
  %18 = load i32, ptr %8, align 4, !tbaa !9
  %19 = icmp eq i32 %17, %18
  br i1 %19, label %20, label %21

20:                                               ; preds = %14
  store i1 true, ptr %2, align 1
  store i32 1, ptr %7, align 4
  br label %22

21:                                               ; preds = %14
  store i32 0, ptr %7, align 4
  br label %22

22:                                               ; preds = %21, %20
  call void @llvm.lifetime.end.p0(i64 4, ptr %8) #17
  %23 = load i32, ptr %7, align 4
  switch i32 %23, label %28 [
    i32 0, label %24
  ]

24:                                               ; preds = %22
  br label %25

25:                                               ; preds = %24
  %26 = load ptr, ptr %5, align 8, !tbaa !258
  %27 = getelementptr inbounds nuw i32, ptr %26, i32 1
  store ptr %27, ptr %5, align 8, !tbaa !258
  br label %9

28:                                               ; preds = %22, %13
  call void @llvm.lifetime.end.p0(i64 8, ptr %6) #17
  call void @llvm.lifetime.end.p0(i64 8, ptr %5) #17
  call void @llvm.lifetime.end.p0(i64 8, ptr %4) #17
  %29 = load i32, ptr %7, align 4
  switch i32 %29, label %33 [
    i32 2, label %30
    i32 1, label %31
  ]

30:                                               ; preds = %28
  store i1 false, ptr %2, align 1
  br label %31

31:                                               ; preds = %30, %28
  %32 = load i1, ptr %2, align 1
  ret i1 %32

33:                                               ; preds = %28
  unreachable
}

; Function Attrs: inlinehint mustprogress nounwind uwtable
define internal noundef zeroext i1 @_ZL14ImCharIsBlankWj(i32 noundef %0) #2 {
  %2 = alloca i32, align 4
  store i32 %0, ptr %2, align 4, !tbaa !9
  %3 = load i32, ptr %2, align 4, !tbaa !9
  %4 = icmp eq i32 %3, 32
  br i1 %4, label %11, label %5

5:                                                ; preds = %1
  %6 = load i32, ptr %2, align 4, !tbaa !9
  %7 = icmp eq i32 %6, 9
  br i1 %7, label %11, label %8

8:                                                ; preds = %5
  %9 = load i32, ptr %2, align 4, !tbaa !9
  %10 = icmp eq i32 %9, 12288
  br label %11

11:                                               ; preds = %8, %5, %1
  %12 = phi i1 [ true, %5 ], [ true, %1 ], [ %10, %8 ]
  ret i1 %12
}

; Function Attrs: mustprogress uwtable
define internal noundef i32 @_ZN5ImStbL27is_word_boundary_from_rightEP19ImGuiInputTextStatei(ptr noundef %0, i32 noundef %1) #8 {
  %3 = alloca i32, align 4
  %4 = alloca ptr, align 8
  %5 = alloca i32, align 4
  %6 = alloca ptr, align 8
  %7 = alloca ptr, align 8
  %8 = alloca i32, align 4
  %9 = alloca i32, align 4
  %10 = alloca i8, align 1
  %11 = alloca i8, align 1
  %12 = alloca i8, align 1
  %13 = alloca i8, align 1
  store ptr %0, ptr %4, align 8, !tbaa !420
  store i32 %1, ptr %5, align 4, !tbaa !9
  %14 = load ptr, ptr %4, align 8, !tbaa !420
  %15 = getelementptr inbounds nuw %struct.ImGuiInputTextState, ptr %14, i32 0, i32 14
  %16 = load i32, ptr %15, align 4, !tbaa !454
  %17 = and i32 %16, 1024
  %18 = icmp ne i32 %17, 0
  br i1 %18, label %22, label %19

19:                                               ; preds = %2
  %20 = load i32, ptr %5, align 4, !tbaa !9
  %21 = icmp sle i32 %20, 0
  br i1 %21, label %22, label %23

22:                                               ; preds = %19, %2
  store i32 0, ptr %3, align 4
  br label %96

23:                                               ; preds = %19
  call void @llvm.lifetime.start.p0(i64 8, ptr %6) #17
  %24 = load ptr, ptr %4, align 8, !tbaa !420
  %25 = getelementptr inbounds nuw %struct.ImGuiInputTextState, ptr %24, i32 0, i32 4
  %26 = getelementptr inbounds nuw %struct.ImVector.34, ptr %25, i32 0, i32 2
  %27 = load ptr, ptr %26, align 8, !tbaa !432
  %28 = load i32, ptr %5, align 4, !tbaa !9
  %29 = sext i32 %28 to i64
  %30 = getelementptr inbounds i8, ptr %27, i64 %29
  store ptr %30, ptr %6, align 8, !tbaa !4
  call void @llvm.lifetime.start.p0(i64 8, ptr %7) #17
  %31 = load ptr, ptr %4, align 8, !tbaa !420
  %32 = getelementptr inbounds nuw %struct.ImGuiInputTextState, ptr %31, i32 0, i32 4
  %33 = getelementptr inbounds nuw %struct.ImVector.34, ptr %32, i32 0, i32 2
  %34 = load ptr, ptr %33, align 8, !tbaa !432
  %35 = load ptr, ptr %6, align 8, !tbaa !4
  %36 = call noundef ptr @_Z31ImTextFindPreviousUtf8CodepointPKcS0_(ptr noundef %34, ptr noundef %35)
  store ptr %36, ptr %7, align 8, !tbaa !4
  call void @llvm.lifetime.start.p0(i64 4, ptr %8) #17
  %37 = load ptr, ptr %6, align 8, !tbaa !4
  %38 = load ptr, ptr %4, align 8, !tbaa !420
  %39 = getelementptr inbounds nuw %struct.ImGuiInputTextState, ptr %38, i32 0, i32 4
  %40 = getelementptr inbounds nuw %struct.ImVector.34, ptr %39, i32 0, i32 2
  %41 = load ptr, ptr %40, align 8, !tbaa !432
  %42 = load ptr, ptr %4, align 8, !tbaa !420
  %43 = getelementptr inbounds nuw %struct.ImGuiInputTextState, ptr %42, i32 0, i32 4
  %44 = getelementptr inbounds nuw %struct.ImVector.34, ptr %43, i32 0, i32 0
  %45 = load i32, ptr %44, align 8, !tbaa !489
  %46 = sext i32 %45 to i64
  %47 = getelementptr inbounds i8, ptr %41, i64 %46
  %48 = call noundef i32 @_Z18ImTextCharFromUtf8PjPKcS1_(ptr noundef %8, ptr noundef %37, ptr noundef %47)
  call void @llvm.lifetime.start.p0(i64 4, ptr %9) #17
  %49 = load ptr, ptr %7, align 8, !tbaa !4
  %50 = load ptr, ptr %4, align 8, !tbaa !420
  %51 = getelementptr inbounds nuw %struct.ImGuiInputTextState, ptr %50, i32 0, i32 4
  %52 = getelementptr inbounds nuw %struct.ImVector.34, ptr %51, i32 0, i32 2
  %53 = load ptr, ptr %52, align 8, !tbaa !432
  %54 = load ptr, ptr %4, align 8, !tbaa !420
  %55 = getelementptr inbounds nuw %struct.ImGuiInputTextState, ptr %54, i32 0, i32 4
  %56 = getelementptr inbounds nuw %struct.ImVector.34, ptr %55, i32 0, i32 0
  %57 = load i32, ptr %56, align 8, !tbaa !489
  %58 = sext i32 %57 to i64
  %59 = getelementptr inbounds i8, ptr %53, i64 %58
  %60 = call noundef i32 @_Z18ImTextCharFromUtf8PjPKcS1_(ptr noundef %9, ptr noundef %49, ptr noundef %59)
  call void @llvm.lifetime.start.p0(i64 1, ptr %10) #17
  %61 = load i32, ptr %9, align 4, !tbaa !9
  %62 = call noundef zeroext i1 @_ZL14ImCharIsBlankWj(i32 noundef %61)
  %63 = zext i1 %62 to i8
  store i8 %63, ptr %10, align 1, !tbaa !67
  call void @llvm.lifetime.start.p0(i64 1, ptr %11) #17
  %64 = load i32, ptr %9, align 4, !tbaa !9
  %65 = call noundef zeroext i1 @_ZN5ImStbL18ImCharIsSeparatorWEj(i32 noundef %64)
  %66 = zext i1 %65 to i8
  store i8 %66, ptr %11, align 1, !tbaa !67
  call void @llvm.lifetime.start.p0(i64 1, ptr %12) #17
  %67 = load i32, ptr %8, align 4, !tbaa !9
  %68 = call noundef zeroext i1 @_ZL14ImCharIsBlankWj(i32 noundef %67)
  %69 = zext i1 %68 to i8
  store i8 %69, ptr %12, align 1, !tbaa !67
  call void @llvm.lifetime.start.p0(i64 1, ptr %13) #17
  %70 = load i32, ptr %8, align 4, !tbaa !9
  %71 = call noundef zeroext i1 @_ZN5ImStbL18ImCharIsSeparatorWEj(i32 noundef %70)
  %72 = zext i1 %71 to i8
  store i8 %72, ptr %13, align 1, !tbaa !67
  %73 = load i8, ptr %10, align 1, !tbaa !67, !range !59, !noundef !60
  %74 = trunc i8 %73 to i1
  br i1 %74, label %78, label %75

75:                                               ; preds = %23
  %76 = load i8, ptr %11, align 1, !tbaa !67, !range !59, !noundef !60
  %77 = trunc i8 %76 to i1
  br i1 %77, label %78, label %84

78:                                               ; preds = %75, %23
  %79 = load i8, ptr %13, align 1, !tbaa !67, !range !59, !noundef !60
  %80 = trunc i8 %79 to i1
  br i1 %80, label %84, label %81

81:                                               ; preds = %78
  %82 = load i8, ptr %12, align 1, !tbaa !67, !range !59, !noundef !60
  %83 = trunc i8 %82 to i1
  br i1 %83, label %84, label %93

84:                                               ; preds = %81, %78, %75
  %85 = load i8, ptr %13, align 1, !tbaa !67, !range !59, !noundef !60
  %86 = trunc i8 %85 to i1
  br i1 %86, label %87, label %91

87:                                               ; preds = %84
  %88 = load i8, ptr %11, align 1, !tbaa !67, !range !59, !noundef !60
  %89 = trunc i8 %88 to i1
  %90 = xor i1 %89, true
  br label %91

91:                                               ; preds = %87, %84
  %92 = phi i1 [ false, %84 ], [ %90, %87 ]
  br label %93

93:                                               ; preds = %91, %81
  %94 = phi i1 [ true, %81 ], [ %92, %91 ]
  %95 = zext i1 %94 to i32
  store i32 %95, ptr %3, align 4
  call void @llvm.lifetime.end.p0(i64 1, ptr %13) #17
  call void @llvm.lifetime.end.p0(i64 1, ptr %12) #17
  call void @llvm.lifetime.end.p0(i64 1, ptr %11) #17
  call void @llvm.lifetime.end.p0(i64 1, ptr %10) #17
  call void @llvm.lifetime.end.p0(i64 4, ptr %9) #17
  call void @llvm.lifetime.end.p0(i64 4, ptr %8) #17
  call void @llvm.lifetime.end.p0(i64 8, ptr %7) #17
  call void @llvm.lifetime.end.p0(i64 8, ptr %6) #17
  br label %96

96:                                               ; preds = %93, %22
  %97 = load i32, ptr %3, align 4
  ret i32 %97
}