; Function Attrs: mustprogress uwtable
define internal fastcc noundef range(i32 0, 2) i32 @_ZN5ImStbL27is_word_boundary_from_rightEP19ImGuiInputTextStatei(ptr noundef nonnull readonly captures(none) %0, i32 noundef %1) unnamed_addr #5 {
  %3 = alloca i32, align 4
  %4 = alloca i32, align 4
  %5 = getelementptr inbounds nuw i8, ptr %0, i64 92
  %6 = load i32, ptr %5, align 4, !tbaa !414
  %7 = and i32 %6, 1024
  %8 = icmp ne i32 %7, 0
  %9 = icmp slt i32 %1, 1
  %or.cond = or i1 %9, %8
  br i1 %or.cond, label %39, label %10

10:                                               ; preds = %2
  %11 = getelementptr inbounds nuw i8, ptr %0, i64 24
  %12 = getelementptr inbounds nuw i8, ptr %0, i64 32
  %13 = load ptr, ptr %12, align 8, !tbaa !385
  %14 = zext nneg i32 %1 to i64
  %15 = getelementptr inbounds nuw i8, ptr %13, i64 %14
  %16 = tail call noundef ptr @_Z31ImTextFindPreviousUtf8CodepointPKcS0_(ptr noundef %13, ptr noundef %15)
  call void @llvm.lifetime.start.p0(i64 4, ptr nonnull %3) #43
  %17 = load ptr, ptr %12, align 8, !tbaa !385
  %18 = load i32, ptr %11, align 8, !tbaa !452
  %19 = sext i32 %18 to i64
  %20 = getelementptr inbounds i8, ptr %17, i64 %19
  %21 = call noundef i32 @_Z18ImTextCharFromUtf8PjPKcS1_(ptr noundef nonnull %3, ptr noundef %15, ptr noundef %20)
  call void @llvm.lifetime.start.p0(i64 4, ptr nonnull %4) #43
  %22 = load ptr, ptr %12, align 8, !tbaa !385
  %23 = load i32, ptr %11, align 8, !tbaa !452
  %24 = sext i32 %23 to i64
  %25 = getelementptr inbounds i8, ptr %22, i64 %24
  %26 = call noundef i32 @_Z18ImTextCharFromUtf8PjPKcS1_(ptr noundef nonnull %4, ptr noundef %16, ptr noundef %25)
  %27 = load i32, ptr %4, align 4, !tbaa !176
  switch i32 %27, label %28 [
    i32 32, label %_ZL14ImCharIsBlankWj.exit
    i32 9, label %_ZL14ImCharIsBlankWj.exit
    i32 12288, label %_ZL14ImCharIsBlankWj.exit
  ]

28:                                               ; preds = %10
  br label %_ZL14ImCharIsBlankWj.exit

_ZL14ImCharIsBlankWj.exit:                        ; preds = %10, %10, %10, %28
  %29 = phi i1 [ true, %10 ], [ false, %28 ], [ true, %10 ], [ true, %10 ]
  br label %30

30:                                               ; preds = %30, %_ZL14ImCharIsBlankWj.exit
  %.010.idx12.i = phi i64 [ 0, %_ZL14ImCharIsBlankWj.exit ], [ %.010.add.i, %30 ]
  %.010.ptr.i = getelementptr inbounds nuw i8, ptr @_ZZN5ImStbL18ImCharIsSeparatorWEjE14separator_list, i64 %.010.idx12.i
  %31 = load i32, ptr %.010.ptr.i, align 4, !tbaa !176
  %.not11.i = icmp eq i32 %27, %31
  %.010.add.i = add nuw nsw i64 %.010.idx12.i, 4
  %.not.not.i = icmp eq i64 %.010.add.i, 116
  %or.cond.i = select i1 %.not11.i, i1 true, i1 %.not.not.i
  br i1 %or.cond.i, label %_ZN5ImStbL18ImCharIsSeparatorWEj.exit, label %30

_ZN5ImStbL18ImCharIsSeparatorWEj.exit:            ; preds = %30
  %32 = load i32, ptr %3, align 4, !tbaa !176
  switch i32 %32, label %33 [
    i32 32, label %_ZL14ImCharIsBlankWj.exit22
    i32 9, label %_ZL14ImCharIsBlankWj.exit22
    i32 12288, label %_ZL14ImCharIsBlankWj.exit22
  ]

33:                                               ; preds = %_ZN5ImStbL18ImCharIsSeparatorWEj.exit
  br label %_ZL14ImCharIsBlankWj.exit22

_ZL14ImCharIsBlankWj.exit22:                      ; preds = %_ZN5ImStbL18ImCharIsSeparatorWEj.exit, %_ZN5ImStbL18ImCharIsSeparatorWEj.exit, %_ZN5ImStbL18ImCharIsSeparatorWEj.exit, %33
  %.not = phi i1 [ false, %_ZN5ImStbL18ImCharIsSeparatorWEj.exit ], [ true, %33 ], [ false, %_ZN5ImStbL18ImCharIsSeparatorWEj.exit ], [ false, %_ZN5ImStbL18ImCharIsSeparatorWEj.exit ]
  br label %34

34:                                               ; preds = %34, %_ZL14ImCharIsBlankWj.exit22
  %.010.idx12.i23 = phi i64 [ 0, %_ZL14ImCharIsBlankWj.exit22 ], [ %.010.add.i26, %34 ]
  %.010.ptr.i24 = getelementptr inbounds nuw i8, ptr @_ZZN5ImStbL18ImCharIsSeparatorWEjE14separator_list, i64 %.010.idx12.i23
  %35 = load i32, ptr %.010.ptr.i24, align 4, !tbaa !176
  %.not11.i25 = icmp eq i32 %32, %35
  %.010.add.i26 = add nuw nsw i64 %.010.idx12.i23, 4
  %.not.not.i27 = icmp eq i64 %.010.add.i26, 116
  %or.cond.i28 = select i1 %.not11.i25, i1 true, i1 %.not.not.i27
  br i1 %or.cond.i28, label %_ZN5ImStbL18ImCharIsSeparatorWEj.exit29, label %34

_ZN5ImStbL18ImCharIsSeparatorWEj.exit29:          ; preds = %34
  %brmerge = or i1 %29, %.not11.i
  %36 = xor i1 %.not11.i, true
  %37 = and i1 %brmerge, %.not
  %narrow = select i1 %.not11.i25, i1 %36, i1 %37
  %38 = zext i1 %narrow to i32
  call void @llvm.lifetime.end.p0(i64 4, ptr nonnull %4) #43
  call void @llvm.lifetime.end.p0(i64 4, ptr nonnull %3) #43
  br label %39

39:                                               ; preds = %2, %_ZN5ImStbL18ImCharIsSeparatorWEj.exit29
  %.0 = phi i32 [ %38, %_ZN5ImStbL18ImCharIsSeparatorWEj.exit29 ], [ 0, %2 ]
  ret i32 %.0
}